; Function Attrs: nofree norecurse nosync nounwind memory(argmem: readwrite) uwtable
define internal void @horizontal_compose_fidelityi_12bit(ptr noundef captures(none) %0, ptr noundef captures(none) %1, i32 noundef %2) #3 {
  %4 = alloca [8 x i32], align 16
  %5 = ashr i32 %2, 1
  call void @llvm.lifetime.start.p0(i64 32, ptr nonnull %4) #6
  %6 = icmp sgt i32 %5, 0
  br i1 %6, label %.preheader48.lr.ph, label %interleave_12bit.exit

.preheader48.lr.ph:                               ; preds = %3
  %7 = add nsw i32 %5, -1
  %8 = getelementptr inbounds nuw i8, ptr %4, i64 28
  %9 = getelementptr inbounds nuw i8, ptr %4, i64 4
  %10 = getelementptr inbounds nuw i8, ptr %4, i64 24
  %11 = getelementptr inbounds nuw i8, ptr %4, i64 8
  %12 = getelementptr inbounds nuw i8, ptr %4, i64 20
  %13 = getelementptr inbounds nuw i8, ptr %4, i64 12
  %14 = getelementptr inbounds nuw i8, ptr %4, i64 16
  %15 = zext nneg i32 %5 to i64
  %wide.trip.count = zext nneg i32 %5 to i64
  %invariant.gep = getelementptr inbounds nuw i32, ptr %0, i64 %15
  br label %.preheader48

.preheader48:                                     ; preds = %.preheader48.lr.ph, %35
  %indvars.iv59 = phi i64 [ 0, %.preheader48.lr.ph ], [ %indvars.iv.next60, %35 ]
  %16 = add nsw i64 %indvars.iv59, -3
  br label %26

.preheader.lr.ph:                                 ; preds = %35
  %17 = add nsw i32 %5, -1
  %18 = getelementptr inbounds nuw i8, ptr %4, i64 28
  %19 = getelementptr inbounds nuw i8, ptr %4, i64 4
  %20 = getelementptr inbounds nuw i8, ptr %4, i64 24
  %21 = getelementptr inbounds nuw i8, ptr %4, i64 8
  %22 = getelementptr inbounds nuw i8, ptr %4, i64 20
  %23 = getelementptr inbounds nuw i8, ptr %4, i64 12
  %24 = getelementptr inbounds nuw i8, ptr %4, i64 16
  %25 = zext nneg i32 %5 to i64
  %wide.trip.count70 = zext nneg i32 %5 to i64
  %invariant.gep78 = getelementptr inbounds nuw i32, ptr %1, i64 %25
  br label %.preheader

26:                                               ; preds = %.preheader48, %26
  %indvars.iv = phi i64 [ 0, %.preheader48 ], [ %indvars.iv.next, %26 ]
  %27 = add nsw i64 %16, %indvars.iv
  %28 = icmp slt i64 %27, 0
  %29 = trunc nsw i64 %27 to i32
  %..i42 = tail call i32 @llvm.smin.i32(i32 %29, i32 %7)
  %30 = sext i32 %..i42 to i64
  %31 = select i1 %28, i64 0, i64 %30
  %32 = getelementptr inbounds i32, ptr %0, i64 %31
  %33 = load i32, ptr %32, align 4, !tbaa !70
  %34 = getelementptr inbounds nuw [8 x i32], ptr %4, i64 0, i64 %indvars.iv
  store i32 %33, ptr %34, align 4, !tbaa !70
  %indvars.iv.next = add nuw nsw i64 %indvars.iv, 1
  %exitcond.not = icmp eq i64 %indvars.iv.next, 8
  br i1 %exitcond.not, label %35, label %26, !llvm.loop !119

35:                                               ; preds = %26
  %gep = getelementptr inbounds nuw i32, ptr %invariant.gep, i64 %indvars.iv59
  %36 = load i32, ptr %gep, align 4, !tbaa !70
  %37 = load i32, ptr %4, align 16, !tbaa !70
  %38 = load i32, ptr %8, align 4, !tbaa !70
  %39 = add i32 %38, %37
  %40 = load i32, ptr %9, align 4, !tbaa !70
  %41 = load i32, ptr %10, align 8, !tbaa !70
  %42 = add i32 %41, %40
  %43 = mul i32 %42, 10
  %44 = load i32, ptr %11, align 8, !tbaa !70
  %45 = load i32, ptr %12, align 4, !tbaa !70
  %46 = add i32 %45, %44
  %.neg41 = mul i32 %46, -25
  %47 = load i32, ptr %13, align 4, !tbaa !70
  %48 = load i32, ptr %14, align 16, !tbaa !70
  %49 = add i32 %48, %47
  %50 = mul i32 %49, 81
  %51 = shl i32 %39, 1
  %reass.sub = sub i32 %43, %51
  %52 = add i32 %reass.sub, 128
  %53 = add i32 %52, %.neg41
  %54 = add i32 %53, %50
  %55 = ashr i32 %54, 8
  %56 = add i32 %55, %36
  %57 = getelementptr inbounds nuw i32, ptr %1, i64 %indvars.iv59
  store i32 %56, ptr %57, align 4, !tbaa !70
  %indvars.iv.next60 = add nuw nsw i64 %indvars.iv59, 1
  %exitcond62.not = icmp eq i64 %indvars.iv.next60, %wide.trip.count
  br i1 %exitcond62.not, label %.preheader.lr.ph, label %.preheader48, !llvm.loop !120

.preheader:                                       ; preds = %.preheader.lr.ph, %68
  %indvars.iv67 = phi i64 [ 0, %.preheader.lr.ph ], [ %indvars.iv.next68, %68 ]
  %58 = add nsw i64 %indvars.iv67, -4
  br label %59

59:                                               ; preds = %.preheader, %59
  %indvars.iv63 = phi i64 [ 0, %.preheader ], [ %indvars.iv.next64, %59 ]
  %60 = add nsw i64 %58, %indvars.iv63
  %61 = icmp slt i64 %60, 0
  %62 = trunc nsw i64 %60 to i32
  %..i = tail call i32 @llvm.smin.i32(i32 %62, i32 %17)
  %63 = sext i32 %..i to i64
  %64 = select i1 %61, i64 0, i64 %63
  %65 = getelementptr inbounds i32, ptr %1, i64 %64
  %66 = load i32, ptr %65, align 4, !tbaa !70
  %67 = getelementptr inbounds nuw [8 x i32], ptr %4, i64 0, i64 %indvars.iv63
  store i32 %66, ptr %67, align 4, !tbaa !70
  %indvars.iv.next64 = add nuw nsw i64 %indvars.iv63, 1
  %exitcond66.not = icmp eq i64 %indvars.iv.next64, 8
  br i1 %exitcond66.not, label %68, label %59, !llvm.loop !121

68:                                               ; preds = %59
  %69 = getelementptr inbounds nuw i32, ptr %0, i64 %indvars.iv67
  %70 = load i32, ptr %69, align 4, !tbaa !70
  %71 = load i32, ptr %4, align 16, !tbaa !70
  %72 = load i32, ptr %18, align 4, !tbaa !70
  %73 = add i32 %72, %71
  %74 = load i32, ptr %19, align 4, !tbaa !70
  %75 = load i32, ptr %20, align 8, !tbaa !70
  %76 = add i32 %75, %74
  %77 = mul i32 %76, 21
  %78 = load i32, ptr %21, align 8, !tbaa !70
  %79 = load i32, ptr %22, align 4, !tbaa !70
  %80 = add i32 %79, %78
  %.neg = mul i32 %80, -46
  %81 = load i32, ptr %23, align 4, !tbaa !70
  %82 = load i32, ptr %24, align 16, !tbaa !70
  %83 = add i32 %82, %81
  %84 = mul i32 %83, 161
  %85 = shl i32 %73, 3
  %reass.sub57 = sub i32 %77, %85
  %86 = add i32 %reass.sub57, 128
  %87 = add i32 %86, %.neg
  %88 = add i32 %87, %84
  %89 = ashr i32 %88, 8
  %90 = sub i32 %70, %89
  %gep79 = getelementptr inbounds nuw i32, ptr %invariant.gep78, i64 %indvars.iv67
  store i32 %90, ptr %gep79, align 4, !tbaa !70
  %indvars.iv.next68 = add nuw nsw i64 %indvars.iv67, 1
  %exitcond71.not = icmp eq i64 %indvars.iv.next68, %wide.trip.count70
  br i1 %exitcond71.not, label %._crit_edge, label %.preheader, !llvm.loop !122

._crit_edge:                                      ; preds = %68
  %91 = getelementptr inbounds nuw i32, ptr %1, i64 %25
  %wide.trip.count75 = zext nneg i32 %5 to i64
  br label %.lr.ph

.lr.ph:                                           ; preds = %._crit_edge, %.lr.ph
  %indvars.iv72 = phi i64 [ 0, %._crit_edge ], [ %indvars.iv.next73, %.lr.ph ]
  %92 = getelementptr inbounds nuw i32, ptr %91, i64 %indvars.iv72
  %93 = load i32, ptr %92, align 4, !tbaa !70
  %.idx = shl nuw nsw i64 %indvars.iv72, 3
  %94 = getelementptr inbounds nuw i8, ptr %0, i64 %.idx
  store i32 %93, ptr %94, align 4, !tbaa !70
  %95 = getelementptr inbounds nuw i32, ptr %1, i64 %indvars.iv72
  %96 = load i32, ptr %95, align 4, !tbaa !70
  %97 = getelementptr inbounds nuw i8, ptr %94, i64 4
  store i32 %96, ptr %97, align 4, !tbaa !70
  %indvars.iv.next73 = add nuw nsw i64 %indvars.iv72, 1
  %exitcond76.not = icmp eq i64 %indvars.iv.next73, %wide.trip.count75
  br i1 %exitcond76.not, label %interleave_12bit.exit, label %.lr.ph, !llvm.loop !106

interleave_12bit.exit:                            ; preds = %.lr.ph, %3
  call void @llvm.lifetime.end.p0(i64 32, ptr nonnull %4) #6
  ret void
}